; Function Attrs: mustprogress nounwind uwtable
define internal noundef ptr @"_ZZN13decI_rRegNode8peepholeEP5BlockiP8PhaseCFGP13PhaseRegAllocEN3$_08__invokeEv"() #0 align 2 {
  %1 = tail call align 8 ptr @llvm.threadlocal.address.p0(ptr align 8 @_ZN6Thread12_thr_currentE)
  %2 = load ptr, ptr %1, align 8
  %3 = getelementptr inbounds i8, ptr %2, i64 1808
  %4 = load ptr, ptr %3, align 8
  %5 = getelementptr inbounds i8, ptr %4, i64 128
  %6 = load ptr, ptr %5, align 8
  %7 = getelementptr inbounds i8, ptr %6, i64 728
  %8 = load ptr, ptr %7, align 8
  %9 = getelementptr inbounds i8, ptr %8, i64 40
  %10 = load ptr, ptr %9, align 8
  %11 = getelementptr inbounds i8, ptr %8, i64 32
  %12 = load ptr, ptr %11, align 8
  %13 = ptrtoint ptr %10 to i64
  %14 = ptrtoint ptr %12 to i64
  %15 = sub i64 %13, %14
  %.not.i.i.i.i = icmp ult i64 %15, 88
  br i1 %.not.i.i.i.i, label %18, label %16

16:                                               ; preds = %0
  %17 = getelementptr inbounds i8, ptr %12, i64 88
  store ptr %17, ptr %11, align 8
  br label %_ZN4NodenwEm.exit.i

18:                                               ; preds = %0
  %19 = tail call noundef ptr @_ZN5Arena4growEmN17AllocFailStrategy13AllocFailEnumE(ptr noundef nonnull align 8 dereferenceable(48) %8, i64 noundef 88, i32 noundef 0) #3
  br label %_ZN4NodenwEm.exit.i

_ZN4NodenwEm.exit.i:                              ; preds = %18, %16
  %.0.i.i.i.i = phi ptr [ %12, %16 ], [ %19, %18 ]
  %20 = icmp eq ptr %.0.i.i.i.i, null
  br i1 %20, label %"_ZZN13decI_rRegNode8peepholeEP5BlockiP8PhaseCFGP13PhaseRegAllocENK3$_0clEv.exit", label %21

21:                                               ; preds = %_ZN4NodenwEm.exit.i
  tail call void @_ZN4NodeC2Ej(ptr noundef nonnull align 8 dereferenceable(52) %.0.i.i.i.i, i32 noundef 0) #3
  %22 = getelementptr inbounds i8, ptr %.0.i.i.i.i, i64 52
  store i8 0, ptr %22, align 4
  %23 = getelementptr inbounds i8, ptr %.0.i.i.i.i, i64 54
  %24 = getelementptr inbounds i8, ptr %.0.i.i.i.i, i64 56
  %25 = getelementptr inbounds i8, ptr %.0.i.i.i.i, i64 44
  store i32 2, ptr %25, align 4
  store ptr getelementptr inbounds inrange(-16, 360) (i8, ptr @_ZTV23leaI_rReg_immI_peepNode, i64 16), ptr %.0.i.i.i.i, align 8
  store i16 3, ptr %23, align 2
  %26 = getelementptr inbounds i8, ptr %.0.i.i.i.i, i64 64
  store ptr %26, ptr %24, align 8
  br label %"_ZZN13decI_rRegNode8peepholeEP5BlockiP8PhaseCFGP13PhaseRegAllocENK3$_0clEv.exit"

"_ZZN13decI_rRegNode8peepholeEP5BlockiP8PhaseCFGP13PhaseRegAllocENK3$_0clEv.exit": ; preds = %_ZN4NodenwEm.exit.i, %21
  ret ptr %.0.i.i.i.i
}